target datalayout = "e-m:e-p270:32:32-p271:32:32-p272:64:64-i64:64-i128:128-f80:128-n8:16:32:64-S128"
target triple = "x86_64-pc-linux-gnu"

%"class.cv::phase_unwrapping::HistogramPhaseUnwrapping_Impl::Pixel" = type <{ float, i32, i8, [3 x i8], float, i32, i32, i32, i8, [3 x i8] }>

; Function Attrs: mustprogress nounwind uwtable
define void @_ZN2cv16phase_unwrapping29HistogramPhaseUnwrapping_Impl5PixelC2Efibfi(ptr noundef nonnull align 4 dereferenceable(29) %0, float noundef %1, i32 noundef %2, i1 noundef zeroext %3, float noundef %4, i32 noundef %5) unnamed_addr #0 align 2 {
  %7 = alloca ptr, align 8
  %8 = alloca float, align 4
  %9 = alloca i32, align 4
  %10 = alloca i8, align 1
  %11 = alloca float, align 4
  %12 = alloca i32, align 4
  store ptr %0, ptr %7, align 8, !tbaa !33
  store float %1, ptr %8, align 4, !tbaa !24
  store i32 %2, ptr %9, align 4, !tbaa !23
  %13 = zext i1 %3 to i8
  store i8 %13, ptr %10, align 1, !tbaa !34
  store float %4, ptr %11, align 4, !tbaa !24
  store i32 %5, ptr %12, align 4, !tbaa !23
  %14 = load ptr, ptr %7, align 8
  %15 = load float, ptr %8, align 4, !tbaa !24
  %16 = getelementptr inbounds nuw %"class.cv::phase_unwrapping::HistogramPhaseUnwrapping_Impl::Pixel", ptr %14, i32 0, i32 0
  store float %15, ptr %16, align 4, !tbaa !36
  %17 = load i32, ptr %9, align 4, !tbaa !23
  %18 = getelementptr inbounds nuw %"class.cv::phase_unwrapping::HistogramPhaseUnwrapping_Impl::Pixel", ptr %14, i32 0, i32 1
  store i32 %17, ptr %18, align 4, !tbaa !38
  %19 = load i8, ptr %10, align 1, !tbaa !34, !range !39, !noundef !40
  %20 = trunc i8 %19 to i1
  %21 = getelementptr inbounds nuw %"class.cv::phase_unwrapping::HistogramPhaseUnwrapping_Impl::Pixel", ptr %14, i32 0, i32 2
  %22 = zext i1 %20 to i8
  store i8 %22, ptr %21, align 4, !tbaa !41
  %23 = load float, ptr %11, align 4, !tbaa !24
  %24 = getelementptr inbounds nuw %"class.cv::phase_unwrapping::HistogramPhaseUnwrapping_Impl::Pixel", ptr %14, i32 0, i32 4
  store float %23, ptr %24, align 4, !tbaa !42
  %25 = load i32, ptr %12, align 4, !tbaa !23
  %26 = getelementptr inbounds nuw %"class.cv::phase_unwrapping::HistogramPhaseUnwrapping_Impl::Pixel", ptr %14, i32 0, i32 5
  store i32 %25, ptr %26, align 4, !tbaa !43
  %27 = getelementptr inbounds nuw %"class.cv::phase_unwrapping::HistogramPhaseUnwrapping_Impl::Pixel", ptr %14, i32 0, i32 6
  store i32 1, ptr %27, align 4, !tbaa !44
  %28 = load i32, ptr %9, align 4, !tbaa !23
  %29 = getelementptr inbounds nuw %"class.cv::phase_unwrapping::HistogramPhaseUnwrapping_Impl::Pixel", ptr %14, i32 0, i32 7
  store i32 %28, ptr %29, align 4, !tbaa !45
  %30 = getelementptr inbounds nuw %"class.cv::phase_unwrapping::HistogramPhaseUnwrapping_Impl::Pixel", ptr %14, i32 0, i32 8
  store i8 1, ptr %30, align 4, !tbaa !46
  ret void
}