; Function Attrs: mustprogress nofree norecurse nosync nounwind willreturn memory(argmem: write) uwtable
define void @_ZN2cv16phase_unwrapping29HistogramPhaseUnwrapping_Impl5PixelC2Efibfi(ptr noundef nonnull writeonly align 4 captures(none) dereferenceable(29) initializes((0, 9), (12, 29)) %0, float noundef %1, i32 noundef %2, i1 noundef zeroext %3, float noundef %4, i32 noundef %5) unnamed_addr #0 align 2 {
  %7 = zext i1 %3 to i8
  store float %1, ptr %0, align 4, !tbaa !22
  %8 = getelementptr inbounds nuw i8, ptr %0, i64 4
  store i32 %2, ptr %8, align 4, !tbaa !25
  %9 = getelementptr inbounds nuw i8, ptr %0, i64 8
  store i8 %7, ptr %9, align 4, !tbaa !26
  %10 = getelementptr inbounds nuw i8, ptr %0, i64 12
  store float %4, ptr %10, align 4, !tbaa !27
  %11 = getelementptr inbounds nuw i8, ptr %0, i64 16
  store i32 %5, ptr %11, align 4, !tbaa !28
  %12 = getelementptr inbounds nuw i8, ptr %0, i64 20
  store i32 1, ptr %12, align 4, !tbaa !29
  %13 = getelementptr inbounds nuw i8, ptr %0, i64 24
  store i32 %2, ptr %13, align 4, !tbaa !30
  %14 = getelementptr inbounds nuw i8, ptr %0, i64 28
  store i8 1, ptr %14, align 4, !tbaa !31
  ret void
}